target datalayout = "e-m:e-p270:32:32-p271:32:32-p272:64:64-i64:64-i128:128-f80:128-n8:16:32:64-S128"
target triple = "x86_64-pc-linux-gnu"

%struct.t_atom = type { float, float, float, float, i16, i16, i32, i32, i32, [4 x i8] }

; Function Attrs: mustprogress nounwind uwtable
define linkonce_odr noundef float @_Zli5_reale(x86_fp80 noundef %0) #3 comdat {
  %2 = alloca x86_fp80, align 16
  store x86_fp80 %0, ptr %2, align 16, !tbaa !63
  %3 = load x86_fp80, ptr %2, align 16, !tbaa !63
  %4 = fptrunc x86_fp80 %3 to float
  ret float %4
}

; Function Attrs: inlinehint mustprogress nounwind uwtable
define linkonce_odr noundef float @_ZSt3absf(float noundef %0) #5 comdat {
  %2 = alloca float, align 4
  store float %0, ptr %2, align 4, !tbaa !31
  %3 = load float, ptr %2, align 4, !tbaa !31
  %4 = call float @llvm.fabs.f32(float %3)
  ret float %4
}

; Function Attrs: inlinehint mustprogress uwtable
define internal void @_ZL10clear_rvecPf(ptr noundef %0) #2 {
  %2 = alloca ptr, align 8
  store ptr %0, ptr %2, align 8, !tbaa !13
  %3 = call noundef float @_Zli5_reale(x86_fp80 noundef 0xK00000000000000000000)
  %4 = load ptr, ptr %2, align 8, !tbaa !13
  %5 = getelementptr inbounds float, ptr %4, i64 0
  store float %3, ptr %5, align 4, !tbaa !31
  %6 = call noundef float @_Zli5_reale(x86_fp80 noundef 0xK00000000000000000000)
  %7 = load ptr, ptr %2, align 8, !tbaa !13
  %8 = getelementptr inbounds float, ptr %7, i64 1
  store float %6, ptr %8, align 4, !tbaa !31
  %9 = call noundef float @_Zli5_reale(x86_fp80 noundef 0xK00000000000000000000)
  %10 = load ptr, ptr %2, align 8, !tbaa !13
  %11 = getelementptr inbounds float, ptr %10, i64 2
  store float %9, ptr %11, align 4, !tbaa !31
  ret void
}

; Function Attrs: mustprogress uwtable
define noundef float @_Z8calc_xcmPA3_KfiPKiPK6t_atomPfb(ptr noundef %0, i32 noundef %1, ptr noundef %2, ptr noundef %3, ptr noundef %4, i1 noundef zeroext %5) #0 {
  %7 = alloca ptr, align 8
  %8 = alloca i32, align 4
  %9 = alloca ptr, align 8
  %10 = alloca ptr, align 8
  %11 = alloca ptr, align 8
  %12 = alloca i8, align 1
  %13 = alloca i32, align 4
  %14 = alloca i32, align 4
  %15 = alloca i32, align 4
  %16 = alloca float, align 4
  %17 = alloca float, align 4
  store ptr %0, ptr %7, align 8, !tbaa !13
  store i32 %1, ptr %8, align 4, !tbaa !4
  store ptr %2, ptr %9, align 8, !tbaa !8
  store ptr %3, ptr %10, align 8, !tbaa !11
  store ptr %4, ptr %11, align 8, !tbaa !13
  %18 = zext i1 %5 to i8
  store i8 %18, ptr %12, align 1, !tbaa !55
  call void @llvm.lifetime.start.p0(i64 4, ptr %13) #7
  call void @llvm.lifetime.start.p0(i64 4, ptr %14) #7
  call void @llvm.lifetime.start.p0(i64 4, ptr %15) #7
  call void @llvm.lifetime.start.p0(i64 4, ptr %16) #7
  call void @llvm.lifetime.start.p0(i64 4, ptr %17) #7
  %19 = load ptr, ptr %11, align 8, !tbaa !13
  call void @_ZL10clear_rvecPf(ptr noundef %19)
  store float 0.000000e+00, ptr %17, align 4, !tbaa !31
  store i32 0, ptr %13, align 4, !tbaa !4
  br label %20

20:                                               ; preds = %86, %6
  %21 = load i32, ptr %13, align 4, !tbaa !4
  %22 = load i32, ptr %8, align 4, !tbaa !4
  %23 = icmp slt i32 %21, %22
  br i1 %23, label %24, label %89

24:                                               ; preds = %20
  %25 = load ptr, ptr %9, align 8, !tbaa !8
  %26 = icmp ne ptr %25, null
  br i1 %26, label %27, label %33

27:                                               ; preds = %24
  %28 = load ptr, ptr %9, align 8, !tbaa !8
  %29 = load i32, ptr %13, align 4, !tbaa !4
  %30 = sext i32 %29 to i64
  %31 = getelementptr inbounds i32, ptr %28, i64 %30
  %32 = load i32, ptr %31, align 4, !tbaa !4
  br label %35

33:                                               ; preds = %24
  %34 = load i32, ptr %13, align 4, !tbaa !4
  br label %35

35:                                               ; preds = %33, %27
  %36 = phi i32 [ %32, %27 ], [ %34, %33 ]
  store i32 %36, ptr %14, align 4, !tbaa !4
  %37 = load ptr, ptr %10, align 8, !tbaa !11
  %38 = icmp ne ptr %37, null
  br i1 %38, label %39, label %58

39:                                               ; preds = %35
  %40 = load i8, ptr %12, align 1, !tbaa !55, !range !57, !noundef !58
  %41 = trunc i8 %40 to i1
  br i1 %41, label %42, label %50

42:                                               ; preds = %39
  %43 = load ptr, ptr %10, align 8, !tbaa !11
  %44 = load i32, ptr %14, align 4, !tbaa !4
  %45 = sext i32 %44 to i64
  %46 = getelementptr inbounds %struct.t_atom, ptr %43, i64 %45
  %47 = getelementptr inbounds nuw %struct.t_atom, ptr %46, i32 0, i32 1
  %48 = load float, ptr %47, align 4, !tbaa !59
  %49 = call noundef float @_ZSt3absf(float noundef %48)
  store float %49, ptr %16, align 4, !tbaa !31
  br label %57

50:                                               ; preds = %39
  %51 = load ptr, ptr %10, align 8, !tbaa !11
  %52 = load i32, ptr %14, align 4, !tbaa !4
  %53 = sext i32 %52 to i64
  %54 = getelementptr inbounds %struct.t_atom, ptr %51, i64 %53
  %55 = getelementptr inbounds nuw %struct.t_atom, ptr %54, i32 0, i32 0
  %56 = load float, ptr %55, align 4, !tbaa !26
  store float %56, ptr %16, align 4, !tbaa !31
  br label %57

57:                                               ; preds = %50, %42
  br label %59

58:                                               ; preds = %35
  store float 1.000000e+00, ptr %16, align 4, !tbaa !31
  br label %59

59:                                               ; preds = %58, %57
  %60 = load float, ptr %16, align 4, !tbaa !31
  %61 = load float, ptr %17, align 4, !tbaa !31
  %62 = fadd float %61, %60
  store float %62, ptr %17, align 4, !tbaa !31
  store i32 0, ptr %15, align 4, !tbaa !4
  br label %63

63:                                               ; preds = %82, %59
  %64 = load i32, ptr %15, align 4, !tbaa !4
  %65 = icmp slt i32 %64, 3
  br i1 %65, label %66, label %85

66:                                               ; preds = %63
  %67 = load float, ptr %16, align 4, !tbaa !31
  %68 = load ptr, ptr %7, align 8, !tbaa !13
  %69 = load i32, ptr %14, align 4, !tbaa !4
  %70 = sext i32 %69 to i64
  %71 = getelementptr inbounds [3 x float], ptr %68, i64 %70
  %72 = load i32, ptr %15, align 4, !tbaa !4
  %73 = sext i32 %72 to i64
  %74 = getelementptr inbounds [3 x float], ptr %71, i64 0, i64 %73
  %75 = load float, ptr %74, align 4, !tbaa !31
  %76 = load ptr, ptr %11, align 8, !tbaa !13
  %77 = load i32, ptr %15, align 4, !tbaa !4
  %78 = sext i32 %77 to i64
  %79 = getelementptr inbounds float, ptr %76, i64 %78
  %80 = load float, ptr %79, align 4, !tbaa !31
  %81 = call float @llvm.fmuladd.f32(float %67, float %75, float %80)
  store float %81, ptr %79, align 4, !tbaa !31
  br label %82

82:                                               ; preds = %66
  %83 = load i32, ptr %15, align 4, !tbaa !4
  %84 = add nsw i32 %83, 1
  store i32 %84, ptr %15, align 4, !tbaa !4
  br label %63, !llvm.loop !60

85:                                               ; preds = %63
  br label %86

86:                                               ; preds = %85
  %87 = load i32, ptr %13, align 4, !tbaa !4
  %88 = add nsw i32 %87, 1
  store i32 %88, ptr %13, align 4, !tbaa !4
  br label %20, !llvm.loop !61

89:                                               ; preds = %20
  store i32 0, ptr %15, align 4, !tbaa !4
  br label %90

90:                                               ; preds = %101, %89
  %91 = load i32, ptr %15, align 4, !tbaa !4
  %92 = icmp slt i32 %91, 3
  br i1 %92, label %93, label %104

93:                                               ; preds = %90
  %94 = load float, ptr %17, align 4, !tbaa !31
  %95 = load ptr, ptr %11, align 8, !tbaa !13
  %96 = load i32, ptr %15, align 4, !tbaa !4
  %97 = sext i32 %96 to i64
  %98 = getelementptr inbounds float, ptr %95, i64 %97
  %99 = load float, ptr %98, align 4, !tbaa !31
  %100 = fdiv float %99, %94
  store float %100, ptr %98, align 4, !tbaa !31
  br label %101

101:                                              ; preds = %93
  %102 = load i32, ptr %15, align 4, !tbaa !4
  %103 = add nsw i32 %102, 1
  store i32 %103, ptr %15, align 4, !tbaa !4
  br label %90, !llvm.loop !62

104:                                              ; preds = %90
  %105 = load float, ptr %17, align 4, !tbaa !31
  call void @llvm.lifetime.end.p0(i64 4, ptr %17) #7
  call void @llvm.lifetime.end.p0(i64 4, ptr %16) #7
  call void @llvm.lifetime.end.p0(i64 4, ptr %15) #7
  call void @llvm.lifetime.end.p0(i64 4, ptr %14) #7
  call void @llvm.lifetime.end.p0(i64 4, ptr %13) #7
  ret float %105
}