; Function Attrs: mustprogress nofree norecurse nosync nounwind memory(argmem: readwrite) uwtable
define noundef float @_Z8calc_xcmPA3_KfiPKiPK6t_atomPfb(ptr noundef readonly captures(none) %0, i32 noundef %1, ptr noundef readonly %2, ptr noundef readonly %3, ptr noundef captures(none) initializes((0, 12)) %4, i1 noundef zeroext %5) local_unnamed_addr #4 {
  store float 0.000000e+00, ptr %4, align 4, !tbaa !21
  %7 = getelementptr inbounds nuw i8, ptr %4, i64 4
  store float 0.000000e+00, ptr %7, align 4, !tbaa !21
  %8 = getelementptr inbounds nuw i8, ptr %4, i64 8
  store float 0.000000e+00, ptr %8, align 4, !tbaa !21
  %9 = icmp sgt i32 %1, 0
  br i1 %9, label %.lr.ph, label %.preheader

.lr.ph:                                           ; preds = %6
  %.not = icmp eq ptr %2, null
  %.not34 = icmp eq ptr %3, null
  %wide.trip.count110 = zext nneg i32 %1 to i64
  br i1 %.not34, label %.lr.ph.split.us, label %.lr.ph.split

.lr.ph.split.us:                                  ; preds = %.lr.ph
  br i1 %.not, label %.lr.ph.split.us.split.us, label %.lr.ph.split.us.split

.lr.ph.split.us.split.us:                         ; preds = %.lr.ph.split.us, %10
  %indvars.iv107 = phi i64 [ %indvars.iv.next108, %10 ], [ 0, %.lr.ph.split.us ]
  %.037.us.us = phi float [ %11, %10 ], [ 0.000000e+00, %.lr.ph.split.us ]
  br label %12

10:                                               ; preds = %12
  %11 = fadd float %.037.us.us, 1.000000e+00
  %indvars.iv.next108 = add nuw nsw i64 %indvars.iv107, 1
  %exitcond111.not = icmp eq i64 %indvars.iv.next108, %wide.trip.count110
  br i1 %exitcond111.not, label %.preheader, label %.lr.ph.split.us.split.us, !llvm.loop !38

12:                                               ; preds = %12, %.lr.ph.split.us.split.us
  %indvars.iv103 = phi i64 [ %indvars.iv.next104, %12 ], [ 0, %.lr.ph.split.us.split.us ]
  %13 = getelementptr inbounds nuw [3 x float], ptr %0, i64 %indvars.iv107, i64 %indvars.iv103
  %14 = load float, ptr %13, align 4, !tbaa !21
  %15 = getelementptr inbounds nuw float, ptr %4, i64 %indvars.iv103
  %16 = load float, ptr %15, align 4, !tbaa !21
  %17 = fadd float %14, %16
  store float %17, ptr %15, align 4, !tbaa !21
  %indvars.iv.next104 = add nuw nsw i64 %indvars.iv103, 1
  %exitcond106.not = icmp eq i64 %indvars.iv.next104, 3
  br i1 %exitcond106.not, label %10, label %12, !llvm.loop !39

.lr.ph.split.us.split:                            ; preds = %.lr.ph.split.us, %21
  %indvars.iv98 = phi i64 [ %indvars.iv.next99, %21 ], [ 0, %.lr.ph.split.us ]
  %.037.us = phi float [ %22, %21 ], [ 0.000000e+00, %.lr.ph.split.us ]
  %18 = getelementptr inbounds nuw i32, ptr %2, i64 %indvars.iv98
  %19 = load i32, ptr %18, align 4, !tbaa !14
  %20 = sext i32 %19 to i64
  br label %23

21:                                               ; preds = %23
  %22 = fadd float %.037.us, 1.000000e+00
  %indvars.iv.next99 = add nuw nsw i64 %indvars.iv98, 1
  %exitcond102.not = icmp eq i64 %indvars.iv.next99, %wide.trip.count110
  br i1 %exitcond102.not, label %.preheader, label %.lr.ph.split.us.split, !llvm.loop !38

23:                                               ; preds = %23, %.lr.ph.split.us.split
  %indvars.iv94 = phi i64 [ %indvars.iv.next95, %23 ], [ 0, %.lr.ph.split.us.split ]
  %24 = getelementptr inbounds [3 x float], ptr %0, i64 %20, i64 %indvars.iv94
  %25 = load float, ptr %24, align 4, !tbaa !21
  %26 = getelementptr inbounds nuw float, ptr %4, i64 %indvars.iv94
  %27 = load float, ptr %26, align 4, !tbaa !21
  %28 = fadd float %25, %27
  store float %28, ptr %26, align 4, !tbaa !21
  %indvars.iv.next95 = add nuw nsw i64 %indvars.iv94, 1
  %exitcond97.not = icmp eq i64 %indvars.iv.next95, 3
  br i1 %exitcond97.not, label %21, label %23, !llvm.loop !39

.lr.ph.split:                                     ; preds = %.lr.ph
  br i1 %5, label %.lr.ph.split.split.us, label %.lr.ph.split.split

.lr.ph.split.split.us:                            ; preds = %.lr.ph.split
  br i1 %.not, label %.lr.ph.split.split.us.split.us, label %.lr.ph.split.split.us.split

.lr.ph.split.split.us.split.us:                   ; preds = %.lr.ph.split.split.us, %32
  %indvars.iv89 = phi i64 [ %indvars.iv.next90, %32 ], [ 0, %.lr.ph.split.split.us ]
  %.037.us38.us = phi float [ %33, %32 ], [ 0.000000e+00, %.lr.ph.split.split.us ]
  %29 = getelementptr inbounds nuw %struct.t_atom, ptr %3, i64 %indvars.iv89, i32 1
  %30 = load float, ptr %29, align 4, !tbaa !40
  %31 = tail call noundef float @llvm.fabs.f32(float %30)
  br label %34

32:                                               ; preds = %34
  %33 = fadd float %.037.us38.us, %31
  %indvars.iv.next90 = add nuw nsw i64 %indvars.iv89, 1
  %exitcond93.not = icmp eq i64 %indvars.iv.next90, %wide.trip.count110
  br i1 %exitcond93.not, label %.preheader, label %.lr.ph.split.split.us.split.us, !llvm.loop !38

34:                                               ; preds = %34, %.lr.ph.split.split.us.split.us
  %indvars.iv85 = phi i64 [ %indvars.iv.next86, %34 ], [ 0, %.lr.ph.split.split.us.split.us ]
  %35 = getelementptr inbounds nuw [3 x float], ptr %0, i64 %indvars.iv89, i64 %indvars.iv85
  %36 = load float, ptr %35, align 4, !tbaa !21
  %37 = getelementptr inbounds nuw float, ptr %4, i64 %indvars.iv85
  %38 = load float, ptr %37, align 4, !tbaa !21
  %39 = tail call float @llvm.fmuladd.f32(float %31, float %36, float %38)
  store float %39, ptr %37, align 4, !tbaa !21
  %indvars.iv.next86 = add nuw nsw i64 %indvars.iv85, 1
  %exitcond88.not = icmp eq i64 %indvars.iv.next86, 3
  br i1 %exitcond88.not, label %32, label %34, !llvm.loop !39

.lr.ph.split.split.us.split:                      ; preds = %.lr.ph.split.split.us, %46
  %indvars.iv80 = phi i64 [ %indvars.iv.next81, %46 ], [ 0, %.lr.ph.split.split.us ]
  %.037.us38 = phi float [ %47, %46 ], [ 0.000000e+00, %.lr.ph.split.split.us ]
  %40 = getelementptr inbounds nuw i32, ptr %2, i64 %indvars.iv80
  %41 = load i32, ptr %40, align 4, !tbaa !14
  %42 = sext i32 %41 to i64
  %43 = getelementptr inbounds %struct.t_atom, ptr %3, i64 %42, i32 1
  %44 = load float, ptr %43, align 4, !tbaa !40
  %45 = tail call noundef float @llvm.fabs.f32(float %44)
  br label %48

46:                                               ; preds = %48
  %47 = fadd float %.037.us38, %45
  %indvars.iv.next81 = add nuw nsw i64 %indvars.iv80, 1
  %exitcond84.not = icmp eq i64 %indvars.iv.next81, %wide.trip.count110
  br i1 %exitcond84.not, label %.preheader, label %.lr.ph.split.split.us.split, !llvm.loop !38

48:                                               ; preds = %48, %.lr.ph.split.split.us.split
  %indvars.iv76 = phi i64 [ %indvars.iv.next77, %48 ], [ 0, %.lr.ph.split.split.us.split ]
  %49 = getelementptr inbounds [3 x float], ptr %0, i64 %42, i64 %indvars.iv76
  %50 = load float, ptr %49, align 4, !tbaa !21
  %51 = getelementptr inbounds nuw float, ptr %4, i64 %indvars.iv76
  %52 = load float, ptr %51, align 4, !tbaa !21
  %53 = tail call float @llvm.fmuladd.f32(float %45, float %50, float %52)
  store float %53, ptr %51, align 4, !tbaa !21
  %indvars.iv.next77 = add nuw nsw i64 %indvars.iv76, 1
  %exitcond79.not = icmp eq i64 %indvars.iv.next77, 3
  br i1 %exitcond79.not, label %46, label %48, !llvm.loop !39

.lr.ph.split.split:                               ; preds = %.lr.ph.split
  br i1 %.not, label %.lr.ph.split.split.split.us, label %.lr.ph.split.split.split

.lr.ph.split.split.split.us:                      ; preds = %.lr.ph.split.split, %56
  %indvars.iv71 = phi i64 [ %indvars.iv.next72, %56 ], [ 0, %.lr.ph.split.split ]
  %.037.us44 = phi float [ %57, %56 ], [ 0.000000e+00, %.lr.ph.split.split ]
  %54 = getelementptr inbounds nuw %struct.t_atom, ptr %3, i64 %indvars.iv71
  %55 = load float, ptr %54, align 4, !tbaa !16
  br label %58

56:                                               ; preds = %58
  %57 = fadd float %.037.us44, %55
  %indvars.iv.next72 = add nuw nsw i64 %indvars.iv71, 1
  %exitcond75.not = icmp eq i64 %indvars.iv.next72, %wide.trip.count110
  br i1 %exitcond75.not, label %.preheader, label %.lr.ph.split.split.split.us, !llvm.loop !38

58:                                               ; preds = %58, %.lr.ph.split.split.split.us
  %indvars.iv67 = phi i64 [ %indvars.iv.next68, %58 ], [ 0, %.lr.ph.split.split.split.us ]
  %59 = getelementptr inbounds nuw [3 x float], ptr %0, i64 %indvars.iv71, i64 %indvars.iv67
  %60 = load float, ptr %59, align 4, !tbaa !21
  %61 = getelementptr inbounds nuw float, ptr %4, i64 %indvars.iv67
  %62 = load float, ptr %61, align 4, !tbaa !21
  %63 = tail call float @llvm.fmuladd.f32(float %55, float %60, float %62)
  store float %63, ptr %61, align 4, !tbaa !21
  %indvars.iv.next68 = add nuw nsw i64 %indvars.iv67, 1
  %exitcond70.not = icmp eq i64 %indvars.iv.next68, 3
  br i1 %exitcond70.not, label %56, label %58, !llvm.loop !39

.preheader:                                       ; preds = %75, %56, %46, %32, %21, %10, %6
  %.0.lcssa = phi float [ 0.000000e+00, %6 ], [ %11, %10 ], [ %22, %21 ], [ %33, %32 ], [ %47, %46 ], [ %57, %56 ], [ %76, %75 ]
  br label %77

.lr.ph.split.split.split:                         ; preds = %.lr.ph.split.split, %75
  %indvars.iv63 = phi i64 [ %indvars.iv.next64, %75 ], [ 0, %.lr.ph.split.split ]
  %.037 = phi float [ %76, %75 ], [ 0.000000e+00, %.lr.ph.split.split ]
  %64 = getelementptr inbounds nuw i32, ptr %2, i64 %indvars.iv63
  %65 = load i32, ptr %64, align 4, !tbaa !14
  %66 = sext i32 %65 to i64
  %67 = getelementptr inbounds %struct.t_atom, ptr %3, i64 %66
  %68 = load float, ptr %67, align 4, !tbaa !16
  br label %69

69:                                               ; preds = %.lr.ph.split.split.split, %69
  %indvars.iv = phi i64 [ 0, %.lr.ph.split.split.split ], [ %indvars.iv.next, %69 ]
  %70 = getelementptr inbounds [3 x float], ptr %0, i64 %66, i64 %indvars.iv
  %71 = load float, ptr %70, align 4, !tbaa !21
  %72 = getelementptr inbounds nuw float, ptr %4, i64 %indvars.iv
  %73 = load float, ptr %72, align 4, !tbaa !21
  %74 = tail call float @llvm.fmuladd.f32(float %68, float %71, float %73)
  store float %74, ptr %72, align 4, !tbaa !21
  %indvars.iv.next = add nuw nsw i64 %indvars.iv, 1
  %exitcond.not = icmp eq i64 %indvars.iv.next, 3
  br i1 %exitcond.not, label %75, label %69, !llvm.loop !39

75:                                               ; preds = %69
  %76 = fadd float %.037, %68
  %indvars.iv.next64 = add nuw nsw i64 %indvars.iv63, 1
  %exitcond66.not = icmp eq i64 %indvars.iv.next64, %wide.trip.count110
  br i1 %exitcond66.not, label %.preheader, label %.lr.ph.split.split.split, !llvm.loop !38

77:                                               ; preds = %.preheader, %77
  %indvars.iv112 = phi i64 [ 0, %.preheader ], [ %indvars.iv.next113, %77 ]
  %78 = getelementptr inbounds nuw float, ptr %4, i64 %indvars.iv112
  %79 = load float, ptr %78, align 4, !tbaa !21
  %80 = fdiv float %79, %.0.lcssa
  store float %80, ptr %78, align 4, !tbaa !21
  %indvars.iv.next113 = add nuw nsw i64 %indvars.iv112, 1
  %exitcond115.not = icmp eq i64 %indvars.iv.next113, 3
  br i1 %exitcond115.not, label %81, label %77, !llvm.loop !41

81:                                               ; preds = %77
  ret float %.0.lcssa
}